target datalayout = "e-m:e-p270:32:32-p271:32:32-p272:64:64-i64:64-i128:128-f80:128-n8:16:32:64-S128"
target triple = "x86_64-pc-linux-gnu"

@.str.1 = private unnamed_addr constant [8 x i8] c"alter.c\00", align 1
@.str.15 = private unnamed_addr constant [29 x i8] c"unsupported object class: %u\00", align 1
@.str.16 = private unnamed_addr constant [46 x i8] c"conversion \22%s\22 already exists in schema \22%s\22\00", align 1
@.str.17 = private unnamed_addr constant [53 x i8] c"statistics object \22%s\22 already exists in schema \22%s\22\00", align 1
@.str.18 = private unnamed_addr constant [54 x i8] c"text search parser \22%s\22 already exists in schema \22%s\22\00", align 1
@.str.19 = private unnamed_addr constant [58 x i8] c"text search dictionary \22%s\22 already exists in schema \22%s\22\00", align 1
@.str.20 = private unnamed_addr constant [56 x i8] c"text search template \22%s\22 already exists in schema \22%s\22\00", align 1
@.str.21 = private unnamed_addr constant [61 x i8] c"text search configuration \22%s\22 already exists in schema \22%s\22\00", align 1
@__func__.report_namespace_conflict = private unnamed_addr constant [26 x i8] c"report_namespace_conflict\00", align 1

; Function Attrs: nounwind uwtable
define internal void @report_namespace_conflict(i32 noundef %0, ptr noundef %1, i32 noundef %2) #0 {
  %4 = alloca i32, align 4
  %5 = alloca ptr, align 8
  %6 = alloca i32, align 4
  %7 = alloca ptr, align 8
  store i32 %0, ptr %4, align 4
  store ptr %1, ptr %5, align 8
  store i32 %2, ptr %6, align 4
  call void @llvm.lifetime.start.p0(i64 8, ptr %7) #6
  %8 = load i32, ptr %4, align 4
  switch i32 %8, label %15 [
    i32 2607, label %9
    i32 3381, label %10
    i32 3601, label %11
    i32 3600, label %12
    i32 3764, label %13
    i32 3602, label %14
  ]

9:                                                ; preds = %3
  store ptr @.str.16, ptr %7, align 8
  br label %27

10:                                               ; preds = %3
  store ptr @.str.17, ptr %7, align 8
  br label %27

11:                                               ; preds = %3
  store ptr @.str.18, ptr %7, align 8
  br label %27

12:                                               ; preds = %3
  store ptr @.str.19, ptr %7, align 8
  br label %27

13:                                               ; preds = %3
  store ptr @.str.20, ptr %7, align 8
  br label %27

14:                                               ; preds = %3
  store ptr @.str.21, ptr %7, align 8
  br label %27

15:                                               ; preds = %3
  br label %16

16:                                               ; preds = %15
  br i1 true, label %17, label %19

17:                                               ; preds = %16
  %18 = call zeroext i1 @errstart_cold(i32 noundef 21, ptr noundef null) #7
  br i1 %18, label %21, label %24

19:                                               ; preds = %16
  %20 = call zeroext i1 @errstart(i32 noundef 21, ptr noundef null)
  br i1 %20, label %21, label %24

21:                                               ; preds = %19, %17
  %22 = load i32, ptr %4, align 4
  %23 = call i32 (ptr, ...) @errmsg_internal(ptr noundef @.str.15, i32 noundef %22)
  call void @errfinish(ptr noundef @.str.1, i32 noundef 144, ptr noundef @__func__.report_namespace_conflict)
  br label %24

24:                                               ; preds = %21, %19, %17
  unreachable

25:                                               ; No predecessors!
  br label %26

26:                                               ; preds = %25
  br label %27

27:                                               ; preds = %26, %14, %13, %12, %11, %10, %9
  br label %28

28:                                               ; preds = %27
  br i1 true, label %29, label %31

29:                                               ; preds = %28
  %30 = call zeroext i1 @errstart_cold(i32 noundef 21, ptr noundef null) #7
  br i1 %30, label %33, label %40

31:                                               ; preds = %28
  %32 = call zeroext i1 @errstart(i32 noundef 21, ptr noundef null)
  br i1 %32, label %33, label %40

33:                                               ; preds = %31, %29
  %34 = call i32 @errcode(i32 noundef 290948)
  %35 = load ptr, ptr %7, align 8
  %36 = load ptr, ptr %5, align 8
  %37 = load i32, ptr %6, align 4
  %38 = call ptr @get_namespace_name(i32 noundef %37)
  %39 = call i32 (ptr, ...) @errmsg(ptr noundef %35, ptr noundef %36, ptr noundef %38)
  call void @errfinish(ptr noundef @.str.1, i32 noundef 150, ptr noundef @__func__.report_namespace_conflict)
  br label %40

40:                                               ; preds = %33, %31, %29
  unreachable

41:                                               ; No predecessors!
  br label %42

42:                                               ; preds = %41
  call void @llvm.lifetime.end.p0(i64 8, ptr %7) #6
  ret void
}