; Function Attrs: noreturn nounwind uwtable
define internal fastcc void @report_namespace_conflict(i32 noundef range(i32 1256, 1255) %0, ptr noundef %1, i32 noundef %2) unnamed_addr #6 {
  switch i32 %0, label %9 [
    i32 2607, label %12
    i32 3381, label %4
    i32 3601, label %5
    i32 3600, label %6
    i32 3764, label %7
    i32 3602, label %8
  ]

4:                                                ; preds = %3
  br label %12

5:                                                ; preds = %3
  br label %12

6:                                                ; preds = %3
  br label %12

7:                                                ; preds = %3
  br label %12

8:                                                ; preds = %3
  br label %12

9:                                                ; preds = %3
  %10 = tail call zeroext i1 @errstart_cold(i32 noundef 21, ptr noundef null) #9
  tail call void @llvm.assume(i1 %10)
  %11 = tail call i32 (ptr, ...) @errmsg_internal(ptr noundef nonnull @.str.15, i32 noundef %0) #8
  tail call void @errfinish(ptr noundef nonnull @.str.1, i32 noundef 144, ptr noundef nonnull @__func__.report_namespace_conflict) #8
  unreachable

12:                                               ; preds = %3, %8, %7, %6, %5, %4
  %.0 = phi ptr [ @.str.21, %8 ], [ @.str.20, %7 ], [ @.str.19, %6 ], [ @.str.18, %5 ], [ @.str.17, %4 ], [ @.str.16, %3 ]
  %13 = tail call zeroext i1 @errstart_cold(i32 noundef 21, ptr noundef null) #9
  tail call void @llvm.assume(i1 %13)
  %14 = tail call i32 @errcode(i32 noundef 290948) #8
  %15 = tail call ptr @get_namespace_name(i32 noundef %2) #8
  %16 = tail call i32 (ptr, ...) @errmsg(ptr noundef nonnull %.0, ptr noundef %1, ptr noundef %15) #8
  tail call void @errfinish(ptr noundef nonnull @.str.1, i32 noundef 150, ptr noundef nonnull @__func__.report_namespace_conflict) #8
  unreachable
}